(dp0
(I24
I30
tp1
I1
s(I7
cnumpy.core.multiarray
scalar
p2
(cnumpy
dtype
p3
(S'i4'
p4
I0
I1
tp5
Rp6
(I3
S'<'
p7
NNNI-1
I-1
I0
tp8
bS'\x0c\x00\x00\x00'
p9
tp10
Rp11
tp12
I0
s(I12
g2
(g6
S'\x1f\x00\x00\x00'
p13
tp14
Rp15
tp16
I0
s(I2
I22
tp17
I1
s(I1
I6
tp18
I1
s(I3
g2
(g6
S'\x07\x00\x00\x00'
p19
tp20
Rp21
tp22
I0
s(I2
g2
(g6
S'\x05\x00\x00\x00'
p23
tp24
Rp25
tp26
I0
s(I1
I11
tp27
I1
s(I6
I7
tp28
I1
s(I26
I32
tp29
I1
s(I6
g2
(g6
S'\n\x00\x00\x00'
p30
tp31
Rp32
tp33
I0
s(I21
I34
tp34
I0
s(I25
I26
tp35
I1
s(I12
g2
(g6
S'\x11\x00\x00\x00'
p36
tp37
Rp38
tp39
I0
s(I11
g2
(g6
S'\x1b\x00\x00\x00'
p40
tp41
Rp42
tp43
I0
s(I2
g2
(g6
S'\x06\x00\x00\x00'
p44
tp45
Rp46
tp47
I0
s(I15
I34
tp48
I1
s(I5
I11
tp49
I1
s(I5
g2
(g6
S'\x18\x00\x00\x00'
p50
tp51
Rp52
tp53
I0
s(I10
g2
(g6
S'\x18\x00\x00\x00'
p54
tp55
Rp56
tp57
I0
s(I28
g2
(g6
S' \x00\x00\x00'
p58
tp59
Rp60
tp61
I0
s(I33
I34
tp62
I1
s(I22
g2
(g6
S'\x19\x00\x00\x00'
p63
tp64
Rp65
tp66
I0
s(I1
I12
tp67
I1
s(I15
I33
tp68
I1
s(I19
I34
tp69
I1
s(I8
g2
(g6
S'\x12\x00\x00\x00'
p70
tp71
Rp72
tp73
I0
s(I10
g2
(g6
S'\x1d\x00\x00\x00'
p74
tp75
Rp76
tp77
I0
s(I6
g2
(g6
S'\x10\x00\x00\x00'
p78
tp79
Rp80
tp81
I0
s(I2
I18
tp82
I1
s(I1
g2
(g6
S'\x1a\x00\x00\x00'
p83
tp84
Rp85
tp86
I0
s(I3
I28
tp87
I1
s(I8
g2
(g6
S'\x1c\x00\x00\x00'
p88
tp89
Rp90
tp91
I0
s(I24
I33
tp92
I0
s(I19
I33
tp93
I1
s(I24
g2
(g6
S'\x1f\x00\x00\x00'
p94
tp95
Rp96
tp97
I0
s(I10
g2
(g6
S'\x1e\x00\x00\x00'
p98
tp99
Rp100
tp101
I0
s(I25
g2
(g6
S'\x1e\x00\x00\x00'
p102
tp103
Rp104
tp105
I0
s(I21
g2
(g6
S'\x1b\x00\x00\x00'
p106
tp107
Rp108
tp109
I0
s(I16
g2
(g6
S'\x1d\x00\x00\x00'
p110
tp111
Rp112
tp113
I0
s(I1
I5
tp114
I1
s(I14
I34
tp115
I1
s(I23
g2
(g6
S'\x1d\x00\x00\x00'
p116
tp117
Rp118
tp119
I0
s(I27
I30
tp120
I1
s(I24
I28
tp121
I1
s(I6
I11
tp122
I1
s(I21
I33
tp123
I0
s(I3
I33
tp124
I1
s(I23
I34
tp125
I1
s(I1
g2
(g6
S'\x13\x00\x00\x00'
p126
tp127
Rp128
tp129
I0
s(I31
I34
tp130
I1
s(I2
g2
(g6
S'\x18\x00\x00\x00'
p131
tp132
Rp133
tp134
I0
s(I17
g2
(g6
S'\x1b\x00\x00\x00'
p135
tp136
Rp137
tp138
I0
s(I27
I34
tp139
I1
s(I3
g2
(g6
S'\x05\x00\x00\x00'
p140
tp141
Rp142
tp143
I0
s(I5
I7
tp144
I1
s(I20
g2
(g6
S'!\x00\x00\x00'
p145
tp146
Rp147
tp148
I0
s(I19
g2
(g6
S'\x1b\x00\x00\x00'
p149
tp150
Rp151
tp152
I0
s(I5
g2
(g6
S'\x14\x00\x00\x00'
p153
tp154
Rp155
tp156
I0
s(I7
I17
tp157
I1
s(I11
g2
(g6
S'\x19\x00\x00\x00'
p158
tp159
Rp160
tp161
I0
s(I7
g2
(g6
S'"\x00\x00\x00'
p162
tp163
Rp164
tp165
I0
s(I31
I33
tp166
I1
s(I1
I3
tp167
I1
s(I4
I8
tp168
I1
s(I28
g2
(g6
S'\x1d\x00\x00\x00'
p169
tp170
Rp171
tp172
I0
s(I2
I8
tp173
I1
s(I25
I32
tp174
I1
s(I6
I17
tp175
I1
s(I11
g2
(g6
S'\x13\x00\x00\x00'
p176
tp177
Rp178
tp179
I0
s(I1
I20
tp180
I1
s(I32
I33
tp181
I1
s(I30
I33
tp182
I1
s(I9
I33
tp183
I1
s(I17
g2
(g6
S'\x1c\x00\x00\x00'
p184
tp185
Rp186
tp187
I0
s(I13
g2
(g6
S'\x19\x00\x00\x00'
p188
tp189
Rp190
tp191
I0
s(I3
I10
tp192
I1
s(I1
I14
tp193
I1
s(I4
I13
tp194
I1
s(I9
I34
tp195
I1
s(I8
g2
(g6
S'\x1d\x00\x00\x00'
p196
tp197
Rp198
tp199
I0
s(I24
I34
tp200
I1
s(I29
I34
tp201
I0
s(I1
I32
tp202
I1
s(I8
g2
(g6
S'\x10\x00\x00\x00'
p203
tp204
Rp205
tp206
I0
s(I15
g2
(g6
S'\x16\x00\x00\x00'
p207
tp208
Rp209
tp210
I0
s(I6
g2
(g6
S'\x12\x00\x00\x00'
p211
tp212
Rp213
tp214
I0
s(I21
g2
(g6
S'\x1a\x00\x00\x00'
p215
tp216
Rp217
tp218
I0
s(I18
g2
(g6
S'\x1b\x00\x00\x00'
p219
tp220
Rp221
tp222
I0
s(I30
I34
tp223
I1
s(I12
g2
(g6
S'\x19\x00\x00\x00'
p224
tp225
Rp226
tp227
I0
s(I2
I20
tp228
I1
s(I1
I4
tp229
I1
s(I24
I26
tp230
I1
s(I16
I33
tp231
I1
s(I3
I9
tp232
I1
s(I2
I3
tp233
I1
s(I1
I9
tp234
I1
s(I2
I14
tp235
I1
s(I19
g2
(g6
S'\x1f\x00\x00\x00'
p236
tp237
Rp238
tp239
I0
s(I15
g2
(g6
S'\x18\x00\x00\x00'
p240
tp241
Rp242
tp243
I0
s(I29
I32
tp244
I1
s(I1
I18
tp245
I1
s(I21
g2
(g6
S'\x16\x00\x00\x00'
p246
tp247
Rp248
tp249
I0
s(I10
g2
(g6
S'!\x00\x00\x00'
p250
tp251
Rp252
tp253
I0
s(I1
I7
tp254
I1
s(I3
I4
tp255
I1
s(I2
I4
tp256
I1
s(I20
I34
tp257
I1
s(I15
g2
(g6
S'\x1f\x00\x00\x00'
p258
tp259
Rp260
tp261
I0
s(I28
I34
tp262
I1
s(I23
g2
(g6
S' \x00\x00\x00'
p263
tp264
Rp265
tp266
I0
s(I11
g2
(g6
S'\x18\x00\x00\x00'
p267
tp268
Rp269
tp270
I0
s(I22
g2
(g6
S'\x1f\x00\x00\x00'
p271
tp272
Rp273
tp274
I0
s(I3
I14
tp275
I1
s(I2
g2
(g6
S'\x1a\x00\x00\x00'
p276
tp277
Rp278
tp279
I0
s(I1
I2
tp280
I1
s(I28
g2
(g6
S'\x1e\x00\x00\x00'
p281
tp282
Rp283
tp284
I0
s(I8
g2
(g6
S'\x14\x00\x00\x00'
p285
tp286
Rp287
tp288
I0
s(I4
g2
(g6
S'\x17\x00\x00\x00'
p289
tp290
Rp291
tp292
I0
s(I7
g2
(g6
S'\n\x00\x00\x00'
p293
tp294
Rp295
tp296
I0
s(I10
I34
tp297
I0
s(I32
I34
tp298
I1
s(I2
I31
tp299
I1
s(I1
I13
tp300
I1
s(I23
I33
tp301
I1
s(I4
I14
tp302
I1
s(I2
g2
(g6
S'\n\x00\x00\x00'
p303
tp304
Rp305
tp306
I0
s(I27
g2
(g6
S'!\x00\x00\x00'
p307
tp308
Rp309
tp310
I0
s(I14
g2
(g6
S'\x14\x00\x00\x00'
p311
tp312
Rp313
tp314
I0
s(I25
I28
tp315
I1
s(I12
g2
(g6
S' \x00\x00\x00'
p316
tp317
Rp318
tp319
I0
s(I21
g2
(g6
S'\x19\x00\x00\x00'
p320
tp321
Rp322
tp323
I0
s(I20
g2
(g6
S'\x17\x00\x00\x00'
p324
tp325
Rp326
tp327
I0
s(I1
I22
tp328
I1
s(I13
g2
(g6
S'\x0e\x00\x00\x00'
p329
tp330
Rp331
tp332
I0
s(I16
I34
tp333
I1
s(I3
I8
tp334
I1
s(I1
I8
tp335
I1
s(I3
I29
tp336
I1
s(I2
g2
(g6
S'\x0f\x00\x00\x00'
p337
tp338
Rp339
tp340
I0
s(I24
g2
(g6
S' \x00\x00\x00'
p341
tp342
Rp343
tp344
I0
s.